; Function Attrs: nounwind sspstrong uwtable
define internal i32 @qio_channel_tls_shutdown(ptr noundef %ioc, i32 noundef %how, ptr noundef %errp) #0 {
entry:
  %call.i = tail call ptr @object_dynamic_cast_assert(ptr noundef %ioc, ptr noundef nonnull @.str, ptr noundef nonnull @.str.1, i32 noundef 30, ptr noundef nonnull @__func__.QIO_CHANNEL_TLS) #8
  %shutdown = getelementptr inbounds nuw i8, ptr %call.i, i64 112
  %0 = atomicrmw or ptr %shutdown, i32 %how seq_cst, align 8
  %master = getelementptr inbounds nuw i8, ptr %call.i, i64 96
  %1 = load ptr, ptr %master, align 8
  %call1 = tail call i32 @qio_channel_shutdown(ptr noundef %1, i32 noundef %how, ptr noundef %errp) #8
  ret i32 %call1
}